; ModuleID = 'bench/llvm/original/SystemUtils.cpp.ll'
source_filename = "bench/llvm/original/SystemUtils.cpp.ll"
target datalayout = "e-m:e-p270:32:32-p271:32:32-p272:64:64-i64:64-i128:128-f80:128-n8:16:32:64-S128"
target triple = "x86_64-pc-linux-gnu"

@.str = private unnamed_addr constant [208 x i8] c"WARNING: You're attempting to print out a bitcode file.\0AThis is inadvisable as it may cause display problems. If\0Ayou REALLY want to taste LLVM bitcode first-hand, you\0Acan force output with the `-f' option.\0A\0A\00", align 1

; Function Attrs: mustprogress nounwind uwtable
define dso_local noundef zeroext i1 @_ZN4llvm27CheckBitcodeOutputToConsoleERNS_11raw_ostreamE(ptr noundef nonnull align 8 dereferenceable(48) %0) local_unnamed_addr #0 {
  %2 = load ptr, ptr %0, align 8
  %3 = getelementptr inbounds nuw i8, ptr %2, i64 48
  %4 = load ptr, ptr %3, align 8
  %5 = tail call noundef zeroext i1 %4(ptr noundef nonnull align 8 dereferenceable(48) %0) #3
  br i1 %5, label %6, label %_ZN4llvm11raw_ostreamlsEPKc.exit

6:                                                ; preds = %1
  %7 = tail call noundef nonnull align 8 dereferenceable(96) ptr @_ZN4llvm4errsEv() #3
  %8 = getelementptr inbounds nuw i8, ptr %7, i64 24
  %9 = load ptr, ptr %8, align 8
  %10 = getelementptr inbounds nuw i8, ptr %7, i64 32
  %11 = load ptr, ptr %10, align 8
  %12 = ptrtoint ptr %9 to i64
  %13 = ptrtoint ptr %11 to i64
  %14 = sub i64 %12, %13
  %15 = icmp ult i64 %14, 207
  br i1 %15, label %16, label %18

16:                                               ; preds = %6
  %17 = tail call noundef nonnull align 8 dereferenceable(48) ptr @_ZN4llvm11raw_ostream5writeEPKcm(ptr noundef nonnull align 8 dereferenceable(48) %7, ptr noundef nonnull @.str, i64 noundef 207) #3
  br label %_ZN4llvm11raw_ostreamlsEPKc.exit

18:                                               ; preds = %6
  tail call void @llvm.memcpy.p0.p0.i64(ptr noundef nonnull align 1 dereferenceable(207) %11, ptr noundef nonnull align 1 dereferenceable(207) @.str, i64 207, i1 false)
  %19 = load ptr, ptr %10, align 8
  %20 = getelementptr inbounds nuw i8, ptr %19, i64 207
  store ptr %20, ptr %10, align 8
  br label %_ZN4llvm11raw_ostreamlsEPKc.exit

_ZN4llvm11raw_ostreamlsEPKc.exit:                 ; preds = %18, %16, %1
  ret i1 %5
}

declare noundef nonnull align 8 dereferenceable(96) ptr @_ZN4llvm4errsEv() local_unnamed_addr #1

declare noundef nonnull align 8 dereferenceable(48) ptr @_ZN4llvm11raw_ostream5writeEPKcm(ptr noundef nonnull align 8 dereferenceable(48), ptr noundef, i64 noundef) local_unnamed_addr #1

; Function Attrs: mustprogress nocallback nofree nounwind willreturn memory(argmem: readwrite)
declare void @llvm.memcpy.p0.p0.i64(ptr noalias writeonly captures(none), ptr noalias readonly captures(none), i64, i1 immarg) #2


!llvm.module.flags = !{!0, !1, !2, !3}

!0 = !{i32 1, !"wchar_size", i32 4}
!1 = !{i32 8, !"PIC Level", i32 2}
!2 = !{i32 7, !"uwtable", i32 2}
!3 = !{i32 7, !"frame-pointer", i32 2}
